target datalayout = "e-m:e-p270:32:32-p271:32:32-p272:64:64-i64:64-i128:128-f80:128-n8:16:32:64-S128"
target triple = "x86_64-unknown-linux-gnu"

%"class.std::__cxx11::basic_string" = type { %"struct.std::__cxx11::basic_string<char>::_Alloc_hider", i64, %union.anon }
%"struct.std::__cxx11::basic_string<char>::_Alloc_hider" = type { ptr }
%union.anon = type { i64, [8 x i8] }
%"class.folly::SharedMutexImpl" = type { %"struct.std::atomic.16" }
%"struct.std::atomic.16" = type { %"struct.std::__atomic_base.17" }
%"struct.std::__atomic_base.17" = type { i32 }
%"class.facebook::velox::memory::MemoryPool" = type { ptr, %"class.std::enable_shared_from_this", %"class.std::__cxx11::basic_string", i32, i16, %"class.std::shared_ptr", i64, i8, i8, i8, i8, i8, %"struct.std::atomic", %"class.std::__exception_ptr::exception_ptr", %"class.folly::SharedMutexImpl", %"class.std::unordered_map" }
%"class.std::enable_shared_from_this" = type { %"class.std::weak_ptr" }
%"class.std::weak_ptr" = type { %"class.std::__weak_ptr" }
%"class.std::__weak_ptr" = type { ptr, %"class.std::__weak_count" }
%"class.std::__weak_count" = type { ptr }
%"class.std::shared_ptr" = type { %"class.std::__shared_ptr" }
%"class.std::__shared_ptr" = type { ptr, %"class.std::__shared_count" }
%"class.std::__shared_count" = type { ptr }
%"struct.std::atomic" = type { %"struct.std::__atomic_base" }
%"struct.std::__atomic_base" = type { i8 }
%"class.std::__exception_ptr::exception_ptr" = type { ptr }
%"class.std::unordered_map" = type { %"class.std::_Hashtable" }
%"class.std::_Hashtable" = type { ptr, i64, %"struct.std::__detail::_Hash_node_base", i64, %"struct.std::__detail::_Prime_rehash_policy", ptr }
%"struct.std::__detail::_Hash_node_base" = type { ptr }
%"struct.std::__detail::_Prime_rehash_policy" = type { float, i64 }

; Function Attrs: mustprogress nounwind uwtable
define linkonce_odr void @_ZNSt15__exception_ptr13exception_ptrC2ERKS0_(ptr noundef nonnull align 8 dereferenceable(8) %this, ptr noundef nonnull align 8 dereferenceable(8) %__other) unnamed_addr #3 comdat align 2 {
entry:
  %this.addr = alloca ptr, align 8
  %__other.addr = alloca ptr, align 8
  store ptr %this, ptr %this.addr, align 8
  store ptr %__other, ptr %__other.addr, align 8
  %this1 = load ptr, ptr %this.addr, align 8
  %_M_exception_object = getelementptr inbounds %"class.std::__exception_ptr::exception_ptr", ptr %this1, i32 0, i32 0
  %0 = load ptr, ptr %__other.addr, align 8
  %_M_exception_object2 = getelementptr inbounds %"class.std::__exception_ptr::exception_ptr", ptr %0, i32 0, i32 0
  %1 = load ptr, ptr %_M_exception_object2, align 8
  store ptr %1, ptr %_M_exception_object, align 8
  %_M_exception_object3 = getelementptr inbounds %"class.std::__exception_ptr::exception_ptr", ptr %this1, i32 0, i32 0
  %2 = load ptr, ptr %_M_exception_object3, align 8
  %tobool = icmp ne ptr %2, null
  br i1 %tobool, label %if.then, label %if.end

if.then:                                          ; preds = %entry
  call void @_ZNSt15__exception_ptr13exception_ptr9_M_addrefEv(ptr noundef nonnull align 8 dereferenceable(8) %this1) #11
  br label %if.end

if.end:                                           ; preds = %if.then, %entry
  ret void
}

; Function Attrs: mustprogress nounwind uwtable
define linkonce_odr void @_ZNSt15__exception_ptr13exception_ptrD2Ev(ptr noundef nonnull align 8 dereferenceable(8) %this) unnamed_addr #3 comdat align 2 {
entry:
  %this.addr = alloca ptr, align 8
  store ptr %this, ptr %this.addr, align 8
  %this1 = load ptr, ptr %this.addr, align 8
  %_M_exception_object = getelementptr inbounds %"class.std::__exception_ptr::exception_ptr", ptr %this1, i32 0, i32 0
  %0 = load ptr, ptr %_M_exception_object, align 8
  %tobool = icmp ne ptr %0, null
  br i1 %tobool, label %if.then, label %if.end

if.then:                                          ; preds = %entry
  call void @_ZNSt15__exception_ptr13exception_ptr10_M_releaseEv(ptr noundef nonnull align 8 dereferenceable(8) %this1) #11
  br label %if.end

if.end:                                           ; preds = %if.then, %entry
  ret void
}

; Function Attrs: mustprogress nounwind uwtable
define linkonce_odr noundef zeroext i1 @_ZNSt15__exception_ptrneERKNS_13exception_ptrES2_(ptr noundef nonnull align 8 dereferenceable(8) %__x, ptr noundef nonnull align 8 dereferenceable(8) %__y) #3 comdat {
entry:
  %__x.addr = alloca ptr, align 8
  %__y.addr = alloca ptr, align 8
  store ptr %__x, ptr %__x.addr, align 8
  store ptr %__y, ptr %__y.addr, align 8
  %0 = load ptr, ptr %__x.addr, align 8
  %_M_exception_object = getelementptr inbounds %"class.std::__exception_ptr::exception_ptr", ptr %0, i32 0, i32 0
  %1 = load ptr, ptr %_M_exception_object, align 8
  %2 = load ptr, ptr %__y.addr, align 8
  %_M_exception_object1 = getelementptr inbounds %"class.std::__exception_ptr::exception_ptr", ptr %2, i32 0, i32 0
  %3 = load ptr, ptr %_M_exception_object1, align 8
  %cmp = icmp ne ptr %1, %3
  ret i1 %cmp
}

; Function Attrs: mustprogress nounwind uwtable
define linkonce_odr void @_ZNSt15__exception_ptr13exception_ptrC2EDn(ptr noundef nonnull align 8 dereferenceable(8) %this, ptr %0) unnamed_addr #3 comdat align 2 {
entry:
  %this.addr = alloca ptr, align 8
  %.addr = alloca ptr, align 8
  store ptr %this, ptr %this.addr, align 8
  store ptr %0, ptr %.addr, align 8
  %this1 = load ptr, ptr %this.addr, align 8
  %_M_exception_object = getelementptr inbounds %"class.std::__exception_ptr::exception_ptr", ptr %this1, i32 0, i32 0
  store ptr null, ptr %_M_exception_object, align 8
  ret void
}

; Function Attrs: mustprogress uwtable
define void @_ZNK8facebook5velox6memory14MemoryPoolImpl14checkIfAbortedEv(ptr noundef nonnull align 8 dereferenceable(480) %this) #0 align 2 personality ptr @__gxx_personality_v0 {
entry:
  %this.addr = alloca ptr, align 8
  %ref.tmp = alloca %"class.std::__exception_ptr::exception_ptr", align 8
  %agg.tmp = alloca %"class.std::__exception_ptr::exception_ptr", align 8
  %exn.slot = alloca ptr, align 8
  %ehselector.slot = alloca i32, align 4
  store ptr %this, ptr %this.addr, align 8
  %this1 = load ptr, ptr %this.addr, align 8
  %vtable = load ptr, ptr %this1, align 8
  %vfn = getelementptr inbounds ptr, ptr %vtable, i64 44
  %0 = load ptr, ptr %vfn, align 8
  %call = call noundef zeroext i1 %0(ptr noundef nonnull align 8 dereferenceable(480) %this1)
  br i1 %call, label %if.then, label %if.end5

if.then:                                          ; preds = %entry
  %abortError_ = getelementptr inbounds %"class.facebook::velox::memory::MemoryPool", ptr %this1, i32 0, i32 13
  call void @_ZNSt15__exception_ptr13exception_ptrC2EDn(ptr noundef nonnull align 8 dereferenceable(8) %ref.tmp, ptr null) #11
  %call2 = call noundef zeroext i1 @_ZNSt15__exception_ptrneERKNS_13exception_ptrES2_(ptr noundef nonnull align 8 dereferenceable(8) %abortError_, ptr noundef nonnull align 8 dereferenceable(8) %ref.tmp) #11
  %lnot = xor i1 %call2, true
  call void @_ZNSt15__exception_ptr13exception_ptrD2Ev(ptr noundef nonnull align 8 dereferenceable(8) %ref.tmp) #11
  br i1 %lnot, label %if.then3, label %if.end

if.then3:                                         ; preds = %if.then
  call void @llvm.trap()
  br label %if.end

if.end:                                           ; preds = %if.then3, %if.then
  %abortError_4 = getelementptr inbounds %"class.facebook::velox::memory::MemoryPool", ptr %this1, i32 0, i32 13
  call void @_ZNSt15__exception_ptr13exception_ptrC2ERKS0_(ptr noundef nonnull align 8 dereferenceable(8) %agg.tmp, ptr noundef nonnull align 8 dereferenceable(8) %abortError_4) #11
  invoke void @_ZSt17rethrow_exceptionNSt15__exception_ptr13exception_ptrE(ptr noundef %agg.tmp) #16
          to label %invoke.cont unwind label %lpad

invoke.cont:                                      ; preds = %if.end
  unreachable

lpad:                                             ; preds = %if.end
  %1 = landingpad { ptr, i32 }
          cleanup
  %2 = extractvalue { ptr, i32 } %1, 0
  store ptr %2, ptr %exn.slot, align 8
  %3 = extractvalue { ptr, i32 } %1, 1
  store i32 %3, ptr %ehselector.slot, align 4
  call void @_ZNSt15__exception_ptr13exception_ptrD2Ev(ptr noundef nonnull align 8 dereferenceable(8) %agg.tmp) #11
  br label %eh.resume

if.end5:                                          ; preds = %entry
  ret void

eh.resume:                                        ; preds = %lpad
  %exn = load ptr, ptr %exn.slot, align 8
  %sel = load i32, ptr %ehselector.slot, align 4
  %lpad.val = insertvalue { ptr, i32 } poison, ptr %exn, 0
  %lpad.val6 = insertvalue { ptr, i32 } %lpad.val, i32 %sel, 1
  resume { ptr, i32 } %lpad.val6
}