; Function Attrs: mustprogress uwtable
define void @_ZNK8facebook5velox6memory14MemoryPoolImpl14checkIfAbortedEv(ptr noundef nonnull align 8 dereferenceable(480) %this) local_unnamed_addr #0 align 2 personality ptr @__gxx_personality_v0 {
entry:
  %agg.tmp = alloca %"class.std::__exception_ptr::exception_ptr", align 8
  %vtable = load ptr, ptr %this, align 8
  %vfn = getelementptr inbounds i8, ptr %vtable, i64 352
  %0 = load ptr, ptr %vfn, align 8
  %call = tail call noundef zeroext i1 %0(ptr noundef nonnull align 8 dereferenceable(480) %this)
  br i1 %call, label %_ZNSt15__exception_ptr13exception_ptrD2Ev.exit, label %if.end5

_ZNSt15__exception_ptr13exception_ptrD2Ev.exit:   ; preds = %entry
  %abortError_ = getelementptr inbounds i8, ptr %this, i64 96
  %1 = load ptr, ptr %abortError_, align 8
  %cmp.i.not = icmp eq ptr %1, null
  br i1 %cmp.i.not, label %if.then3, label %_ZNSt15__exception_ptr13exception_ptrC2ERKS0_.exit

if.then3:                                         ; preds = %_ZNSt15__exception_ptr13exception_ptrD2Ev.exit
  tail call void @llvm.trap()
  unreachable

_ZNSt15__exception_ptr13exception_ptrC2ERKS0_.exit: ; preds = %_ZNSt15__exception_ptr13exception_ptrD2Ev.exit
  store ptr %1, ptr %agg.tmp, align 8
  call void @_ZNSt15__exception_ptr13exception_ptr9_M_addrefEv(ptr noundef nonnull align 8 dereferenceable(8) %agg.tmp) #26
  invoke void @_ZSt17rethrow_exceptionNSt15__exception_ptr13exception_ptrE(ptr noundef nonnull %agg.tmp) #29
          to label %invoke.cont unwind label %lpad

invoke.cont:                                      ; preds = %_ZNSt15__exception_ptr13exception_ptrC2ERKS0_.exit
  unreachable

lpad:                                             ; preds = %_ZNSt15__exception_ptr13exception_ptrC2ERKS0_.exit
  %2 = landingpad { ptr, i32 }
          cleanup
  %3 = load ptr, ptr %agg.tmp, align 8
  %tobool.not.i3 = icmp eq ptr %3, null
  br i1 %tobool.not.i3, label %_ZNSt15__exception_ptr13exception_ptrD2Ev.exit5, label %if.then.i4

if.then.i4:                                       ; preds = %lpad
  call void @_ZNSt15__exception_ptr13exception_ptr10_M_releaseEv(ptr noundef nonnull align 8 dereferenceable(8) %agg.tmp) #26
  br label %_ZNSt15__exception_ptr13exception_ptrD2Ev.exit5

_ZNSt15__exception_ptr13exception_ptrD2Ev.exit5:  ; preds = %lpad, %if.then.i4
  resume { ptr, i32 } %2

if.end5:                                          ; preds = %entry
  ret void
}